target datalayout = "e-m:e-p270:32:32-p271:32:32-p272:64:64-i64:64-i128:128-f80:128-n8:16:32:64-S128"
target triple = "x86_64-pc-linux-gnu"

%"class.boost::execution_monitor" = type { %"class.boost::unit_test::readwrite_property", %"class.boost::unit_test::readwrite_property", %"class.boost::unit_test::readwrite_property.9", %"class.boost::unit_test::readwrite_property", %"class.boost::unit_test::readwrite_property.11", %"class.boost::shared_ptr", %"class.boost::scoped_array" }
%"class.boost::unit_test::readwrite_property.9" = type { %"class.boost::unit_test::class_property.10" }
%"class.boost::unit_test::class_property.10" = type { i64 }
%"class.boost::unit_test::readwrite_property" = type { %"class.boost::unit_test::class_property" }
%"class.boost::unit_test::class_property" = type { i8 }
%"class.boost::unit_test::readwrite_property.11" = type { %"class.boost::unit_test::class_property.12" }
%"class.boost::unit_test::class_property.12" = type { i32 }
%"class.boost::shared_ptr" = type { ptr, %"class.boost::detail::shared_count" }
%"class.boost::detail::shared_count" = type { ptr }
%"class.boost::scoped_array" = type { ptr }

; Function Attrs: mustprogress nounwind uwtable
define linkonce_odr hidden void @_ZN5boost6detail12shared_countC2Ev(ptr noundef nonnull align 8 dereferenceable(8) %0) unnamed_addr #5 comdat align 2 {
  %2 = alloca ptr, align 8
  store ptr %0, ptr %2, align 8, !tbaa !3
  %3 = load ptr, ptr %2, align 8
  %4 = getelementptr inbounds nuw %"class.boost::detail::shared_count", ptr %3, i32 0, i32 0
  store ptr null, ptr %4, align 8, !tbaa !67
  ret void
}

; Function Attrs: mustprogress nounwind uwtable
define linkonce_odr hidden void @_ZN5boost9unit_test14class_propertyIjEC2Ej(ptr noundef nonnull align 4 dereferenceable(4) %0, i32 noundef %1) unnamed_addr #5 comdat align 2 {
  %3 = alloca ptr, align 8
  %4 = alloca i32, align 4
  store ptr %0, ptr %3, align 8, !tbaa !3
  store i32 %1, ptr %4, align 4, !tbaa !21
  %5 = load ptr, ptr %3, align 8
  %6 = getelementptr inbounds nuw %"class.boost::unit_test::class_property.12", ptr %5, i32 0, i32 0
  %7 = load i32, ptr %4, align 4, !tbaa !21
  store i32 %7, ptr %6, align 4, !tbaa !98
  ret void
}

; Function Attrs: mustprogress nounwind uwtable
define linkonce_odr hidden void @_ZN5boost9unit_test14class_propertyImEC2Em(ptr noundef nonnull align 8 dereferenceable(8) %0, i64 noundef %1) unnamed_addr #5 comdat align 2 {
  %3 = alloca ptr, align 8
  %4 = alloca i64, align 8
  store ptr %0, ptr %3, align 8, !tbaa !3
  store i64 %1, ptr %4, align 8, !tbaa !28
  %5 = load ptr, ptr %3, align 8
  %6 = getelementptr inbounds nuw %"class.boost::unit_test::class_property.10", ptr %5, i32 0, i32 0
  %7 = load i64, ptr %4, align 8, !tbaa !28
  store i64 %7, ptr %6, align 8, !tbaa !96
  ret void
}

; Function Attrs: mustprogress nounwind uwtable
define linkonce_odr hidden void @_ZN5boost9unit_test14class_propertyIbEC2Eb(ptr noundef nonnull align 1 dereferenceable(1) %0, i1 noundef zeroext %1) unnamed_addr #5 comdat align 2 {
  %3 = alloca ptr, align 8
  %4 = alloca i8, align 1
  store ptr %0, ptr %3, align 8, !tbaa !3
  %5 = zext i1 %1 to i8
  store i8 %5, ptr %4, align 1, !tbaa !22
  %6 = load ptr, ptr %3, align 8
  %7 = getelementptr inbounds nuw %"class.boost::unit_test::class_property", ptr %6, i32 0, i32 0
  %8 = load i8, ptr %4, align 1, !tbaa !22, !range !24, !noundef !25
  %9 = trunc i8 %8 to i1
  %10 = zext i1 %9 to i8
  store i8 %10, ptr %7, align 1, !tbaa !40
  ret void
}

; Function Attrs: mustprogress nounwind uwtable
define linkonce_odr hidden void @_ZN5boost12scoped_arrayIcEC2EPc(ptr noundef nonnull align 8 dereferenceable(8) %0, ptr noundef %1) unnamed_addr #5 comdat align 2 {
  %3 = alloca ptr, align 8
  %4 = alloca ptr, align 8
  store ptr %0, ptr %3, align 8, !tbaa !3
  store ptr %1, ptr %4, align 8, !tbaa !3
  %5 = load ptr, ptr %3, align 8
  %6 = getelementptr inbounds nuw %"class.boost::scoped_array", ptr %5, i32 0, i32 0
  %7 = load ptr, ptr %4, align 8, !tbaa !3
  store ptr %7, ptr %6, align 8, !tbaa !42
  ret void
}

; Function Attrs: mustprogress nounwind uwtable
define linkonce_odr hidden void @_ZN5boost10shared_ptrINS_6detail22translator_holder_baseEEC2Ev(ptr noundef nonnull align 8 dereferenceable(16) %0) unnamed_addr #5 comdat align 2 {
  %2 = alloca ptr, align 8
  store ptr %0, ptr %2, align 8, !tbaa !3
  %3 = load ptr, ptr %2, align 8
  %4 = getelementptr inbounds nuw %"class.boost::shared_ptr", ptr %3, i32 0, i32 0
  store ptr null, ptr %4, align 8, !tbaa !45
  %5 = getelementptr inbounds nuw %"class.boost::shared_ptr", ptr %3, i32 0, i32 1
  call void @_ZN5boost6detail12shared_countC2Ev(ptr noundef nonnull align 8 dereferenceable(8) %5) #3
  ret void
}

; Function Attrs: mustprogress uwtable
define linkonce_odr hidden void @_ZN5boost9unit_test18readwrite_propertyIjEC2Ej(ptr noundef nonnull align 4 dereferenceable(4) %0, i32 noundef %1) unnamed_addr #4 comdat align 2 {
  %3 = alloca ptr, align 8
  %4 = alloca i32, align 4
  store ptr %0, ptr %3, align 8, !tbaa !3
  store i32 %1, ptr %4, align 4, !tbaa !21
  %5 = load ptr, ptr %3, align 8
  %6 = load i32, ptr %4, align 4, !tbaa !21
  call void @_ZN5boost9unit_test14class_propertyIjEC2Ej(ptr noundef nonnull align 4 dereferenceable(4) %5, i32 noundef %6)
  ret void
}

; Function Attrs: mustprogress uwtable
define linkonce_odr hidden void @_ZN5boost9unit_test18readwrite_propertyImEC2Em(ptr noundef nonnull align 8 dereferenceable(8) %0, i64 noundef %1) unnamed_addr #4 comdat align 2 {
  %3 = alloca ptr, align 8
  %4 = alloca i64, align 8
  store ptr %0, ptr %3, align 8, !tbaa !3
  store i64 %1, ptr %4, align 8, !tbaa !28
  %5 = load ptr, ptr %3, align 8
  %6 = load i64, ptr %4, align 8, !tbaa !28
  call void @_ZN5boost9unit_test14class_propertyImEC2Em(ptr noundef nonnull align 8 dereferenceable(8) %5, i64 noundef %6)
  ret void
}

; Function Attrs: mustprogress uwtable
define linkonce_odr hidden void @_ZN5boost9unit_test18readwrite_propertyIbEC2Eb(ptr noundef nonnull align 1 dereferenceable(1) %0, i1 noundef zeroext %1) unnamed_addr #4 comdat align 2 {
  %3 = alloca ptr, align 8
  %4 = alloca i8, align 1
  store ptr %0, ptr %3, align 8, !tbaa !3
  %5 = zext i1 %1 to i8
  store i8 %5, ptr %4, align 1, !tbaa !22
  %6 = load ptr, ptr %3, align 8
  %7 = load i8, ptr %4, align 1, !tbaa !22, !range !24, !noundef !25
  %8 = trunc i8 %7 to i1
  call void @_ZN5boost9unit_test14class_propertyIbEC2Eb(ptr noundef nonnull align 1 dereferenceable(1) %6, i1 noundef zeroext %8)
  ret void
}

; Function Attrs: mustprogress uwtable
define void @_ZN5boost17execution_monitorC2Ev(ptr noundef nonnull align 8 dereferenceable(48) %0) unnamed_addr #4 align 2 {
  %2 = alloca ptr, align 8
  store ptr %0, ptr %2, align 8, !tbaa !3
  %3 = load ptr, ptr %2, align 8
  %4 = getelementptr inbounds nuw %"class.boost::execution_monitor", ptr %3, i32 0, i32 0
  call void @_ZN5boost9unit_test18readwrite_propertyIbEC2Eb(ptr noundef nonnull align 1 dereferenceable(1) %4, i1 noundef zeroext true)
  %5 = getelementptr inbounds nuw %"class.boost::execution_monitor", ptr %3, i32 0, i32 1
  call void @_ZN5boost9unit_test18readwrite_propertyIbEC2Eb(ptr noundef nonnull align 1 dereferenceable(1) %5, i1 noundef zeroext false)
  %6 = getelementptr inbounds nuw %"class.boost::execution_monitor", ptr %3, i32 0, i32 2
  call void @_ZN5boost9unit_test18readwrite_propertyImEC2Em(ptr noundef nonnull align 8 dereferenceable(8) %6, i64 noundef 0)
  %7 = getelementptr inbounds nuw %"class.boost::execution_monitor", ptr %3, i32 0, i32 3
  call void @_ZN5boost9unit_test18readwrite_propertyIbEC2Eb(ptr noundef nonnull align 1 dereferenceable(1) %7, i1 noundef zeroext true)
  %8 = getelementptr inbounds nuw %"class.boost::execution_monitor", ptr %3, i32 0, i32 4
  call void @_ZN5boost9unit_test18readwrite_propertyIjEC2Ej(ptr noundef nonnull align 4 dereferenceable(4) %8, i32 noundef 0)
  %9 = getelementptr inbounds nuw %"class.boost::execution_monitor", ptr %3, i32 0, i32 5
  call void @_ZN5boost10shared_ptrINS_6detail22translator_holder_baseEEC2Ev(ptr noundef nonnull align 8 dereferenceable(16) %9) #3
  %10 = getelementptr inbounds nuw %"class.boost::execution_monitor", ptr %3, i32 0, i32 6
  call void @_ZN5boost12scoped_arrayIcEC2EPc(ptr noundef nonnull align 8 dereferenceable(8) %10, ptr noundef null) #3
  ret void
}