; Function Attrs: mustprogress nofree norecurse nosync nounwind willreturn memory(argmem: write) uwtable
define void @_ZN5boost17execution_monitorC2Ev(ptr nocapture noundef nonnull writeonly align 8 dereferenceable(48) %0) unnamed_addr #5 align 2 {
  store i8 1, ptr %0, align 8, !tbaa !56
  %2 = getelementptr inbounds nuw i8, ptr %0, i64 1
  store i8 0, ptr %2, align 1, !tbaa !56
  %3 = getelementptr inbounds nuw i8, ptr %0, i64 8
  store i64 0, ptr %3, align 8, !tbaa !70
  %4 = getelementptr inbounds nuw i8, ptr %0, i64 16
  store i8 1, ptr %4, align 8, !tbaa !56
  %5 = getelementptr inbounds nuw i8, ptr %0, i64 20
  tail call void @llvm.memset.p0.i64(ptr noundef nonnull align 4 dereferenceable(28) %5, i8 0, i64 28, i1 false)
  ret void
}